#include <math.h>
#include <stdio.h>
#include <stdlib.h>
#include <string.h>
#include <iostream>
using namespace std;

int main()
{
int n,i;
cin>>n;
if(n>=1000)
	{int a[4];
    a[0]=n/1000;
	a[1]=(n%1000)/100;
	a[2]=(n-a[0]*1000-a[1]*100)/10;
	a[3]=n-a[0]*1000-a[1]*100-a[2]*10;
	for(i=3;i>=0;i--)
		cout<<a[i];}
 else if(n>=100)
 {int a[3];
  a[0]=n/100;
  a[1]=(n-a[0]*100)/10;
  a[2]=n-a[0]*100-a[1]*10;
  for(i=2;i>=0;i--)
  cout<<a[i];}
 else if(n>=10)
 {int a[2];
 a[0]=n/10;
 a[1]=n-a[0]*10;
 for(i=1;i>=0;i--)
 cout<<a[i];}
 else  cout<<n;
 return 0;
}